target datalayout = "e-m:e-p270:32:32-p271:32:32-p272:64:64-i64:64-i128:128-f80:128-n8:16:32:64-S128"
target triple = "x86_64-unknown-linux-gnu"

%"class.Assimp::Logger" = type <{ ptr, i32, [4 x i8] }>

@.str.3 = private unnamed_addr constant [15 x i8] c"Debug, T%u: %s\00", align 1

; Function Attrs: mustprogress nounwind uwtable
define noundef i32 @_ZN6Assimp13DefaultLogger11GetThreadIDEv(ptr noundef nonnull align 8 dereferenceable(2104) %this) #0 align 2 {
entry:
  %this.addr = alloca ptr, align 8
  store ptr %this, ptr %this.addr, align 8
  ret i32 0
}

; Function Attrs: mustprogress uwtable
define void @_ZN6Assimp13DefaultLogger14OnVerboseDebugEPKc(ptr noundef nonnull align 8 dereferenceable(2104) %this, ptr noundef %message) unnamed_addr #6 align 2 {
entry:
  %this.addr = alloca ptr, align 8
  %message.addr = alloca ptr, align 8
  %msg = alloca [1040 x i8], align 16
  store ptr %this, ptr %this.addr, align 8
  store ptr %message, ptr %message.addr, align 8
  %this1 = load ptr, ptr %this.addr, align 8
  %m_Severity = getelementptr inbounds %"class.Assimp::Logger", ptr %this1, i32 0, i32 1
  %0 = load i32, ptr %m_Severity, align 8
  %cmp = icmp slt i32 %0, 2
  br i1 %cmp, label %if.then, label %if.end

if.then:                                          ; preds = %entry
  br label %return

if.end:                                           ; preds = %entry
  %arraydecay = getelementptr inbounds [1040 x i8], ptr %msg, i64 0, i64 0
  %call = call noundef i32 @_ZN6Assimp13DefaultLogger11GetThreadIDEv(ptr noundef nonnull align 8 dereferenceable(2104) %this1)
  %1 = load ptr, ptr %message.addr, align 8
  %call2 = call i32 (ptr, i64, ptr, ...) @snprintf(ptr noundef %arraydecay, i64 noundef 1040, ptr noundef @.str.3, i32 noundef %call, ptr noundef %1) #5
  %arraydecay3 = getelementptr inbounds [1040 x i8], ptr %msg, i64 0, i64 0
  call void @_ZN6Assimp13DefaultLogger14WriteToStreamsEPKcNS_6Logger13ErrorSeverityE(ptr noundef nonnull align 8 dereferenceable(2104) %this1, ptr noundef %arraydecay3, i32 noundef 1)
  br label %return

return:                                           ; preds = %if.end, %if.then
  ret void
}